target datalayout = "e-m:e-p270:32:32-p271:32:32-p272:64:64-i64:64-i128:128-f80:128-n8:16:32:64-S128"
target triple = "x86_64-pc-linux-gnu"

%struct._zend_array = type { %struct._zend_refcounted_h, %union.anon.0, i32, %union.anon.1, i32, i32, i32, i32, i64, ptr }
%struct._zend_refcounted_h = type { i32, %union.anon }
%union.anon = type { i32 }
%union.anon.0 = type { i32 }
%union.anon.1 = type { ptr }
%struct._zend_string = type { %struct._zend_refcounted_h, i64, i64, [1 x i8] }
%struct._zend_op_array = type { i8, [3 x i8], i32, ptr, ptr, ptr, i32, i32, ptr, ptr, ptr, ptr, i32, i32, i32, i32, ptr, ptr, ptr, ptr, ptr, i32, i32, ptr, ptr, ptr, i32, i32, i32, i32, ptr, ptr, [6 x ptr] }
%struct._zend_cfg = type { i32, i32, ptr, ptr, ptr, i32 }
%struct._zend_class_entry = type { i8, ptr, %union.anon.8, i32, i32, i32, i32, ptr, ptr, ptr, %struct._zend_array, %struct._zend_array, %struct._zend_array, ptr, ptr, ptr, ptr, ptr, ptr, ptr, ptr, ptr, ptr, ptr, ptr, ptr, ptr, ptr, ptr, ptr, ptr, ptr, %union.anon.9, ptr, ptr, ptr, ptr, i32, i32, %union.anon.10, ptr, ptr, ptr, ptr, i32, ptr, ptr, %union.anon.11 }
%union.anon.8 = type { ptr }
%union.anon.9 = type { ptr }
%union.anon.10 = type { ptr }
%union.anon.11 = type { %struct.anon.12 }
%struct.anon.12 = type { ptr, i32, i32 }
%struct._zend_dfg = type { i32, i32, ptr, ptr, ptr, ptr, ptr }

@stderr = external global ptr, align 8
@.str.22 = private unnamed_addr constant [3 x i8] c"%s\00", align 1
@.str.70 = private unnamed_addr constant [7 x i8] c"%s::%s\00", align 1
@.str.71 = private unnamed_addr constant [7 x i8] c"$_main\00", align 1
@.str.104 = private unnamed_addr constant [3 x i8] c"\22\0A\00", align 1
@.str.111 = private unnamed_addr constant [25 x i8] c"\0AVariable Liveness for \22\00", align 1
@.str.112 = private unnamed_addr constant [9 x i8] c"  BB%d:\0A\00", align 1
@.str.113 = private unnamed_addr constant [4 x i8] c"def\00", align 1
@.str.114 = private unnamed_addr constant [4 x i8] c"use\00", align 1
@.str.115 = private unnamed_addr constant [4 x i8] c"in \00", align 1
@.str.116 = private unnamed_addr constant [4 x i8] c"out\00", align 1

; Function Attrs: nounwind uwtable
define hidden void @zend_dump_op_array_name(ptr noundef %0) #0 {
  %2 = alloca ptr, align 8
  store ptr %0, ptr %2, align 8
  %3 = load ptr, ptr %2, align 8
  %4 = getelementptr inbounds %struct._zend_op_array, ptr %3, i32 0, i32 3
  %5 = load ptr, ptr %4, align 8
  %6 = icmp ne ptr %5, null
  br i1 %6, label %7, label %43

7:                                                ; preds = %1
  %8 = load ptr, ptr %2, align 8
  %9 = getelementptr inbounds %struct._zend_op_array, ptr %8, i32 0, i32 4
  %10 = load ptr, ptr %9, align 8
  %11 = icmp ne ptr %10, null
  br i1 %11, label %12, label %34

12:                                               ; preds = %7
  %13 = load ptr, ptr %2, align 8
  %14 = getelementptr inbounds %struct._zend_op_array, ptr %13, i32 0, i32 4
  %15 = load ptr, ptr %14, align 8
  %16 = getelementptr inbounds %struct._zend_class_entry, ptr %15, i32 0, i32 1
  %17 = load ptr, ptr %16, align 8
  %18 = icmp ne ptr %17, null
  br i1 %18, label %19, label %34

19:                                               ; preds = %12
  %20 = load ptr, ptr @stderr, align 8
  %21 = load ptr, ptr %2, align 8
  %22 = getelementptr inbounds %struct._zend_op_array, ptr %21, i32 0, i32 4
  %23 = load ptr, ptr %22, align 8
  %24 = getelementptr inbounds %struct._zend_class_entry, ptr %23, i32 0, i32 1
  %25 = load ptr, ptr %24, align 8
  %26 = getelementptr inbounds %struct._zend_string, ptr %25, i32 0, i32 3
  %27 = getelementptr inbounds [1 x i8], ptr %26, i64 0, i64 0
  %28 = load ptr, ptr %2, align 8
  %29 = getelementptr inbounds %struct._zend_op_array, ptr %28, i32 0, i32 3
  %30 = load ptr, ptr %29, align 8
  %31 = getelementptr inbounds %struct._zend_string, ptr %30, i32 0, i32 3
  %32 = getelementptr inbounds [1 x i8], ptr %31, i64 0, i64 0
  %33 = call i32 (ptr, ptr, ...) @fprintf(ptr noundef %20, ptr noundef @.str.70, ptr noundef %27, ptr noundef %32) #4
  br label %42

34:                                               ; preds = %12, %7
  %35 = load ptr, ptr @stderr, align 8
  %36 = load ptr, ptr %2, align 8
  %37 = getelementptr inbounds %struct._zend_op_array, ptr %36, i32 0, i32 3
  %38 = load ptr, ptr %37, align 8
  %39 = getelementptr inbounds %struct._zend_string, ptr %38, i32 0, i32 3
  %40 = getelementptr inbounds [1 x i8], ptr %39, i64 0, i64 0
  %41 = call i32 (ptr, ptr, ...) @fprintf(ptr noundef %35, ptr noundef @.str.22, ptr noundef %40) #4
  br label %42

42:                                               ; preds = %34, %19
  br label %46

43:                                               ; preds = %1
  %44 = load ptr, ptr @stderr, align 8
  %45 = call i32 (ptr, ptr, ...) @fprintf(ptr noundef %44, ptr noundef @.str.22, ptr noundef @.str.71) #4
  br label %46

46:                                               ; preds = %43, %42
  ret void
}

; Function Attrs: nounwind uwtable
define hidden void @zend_dump_dfg(ptr noundef %0, ptr noundef %1, ptr noundef %2) #0 {
  %4 = alloca ptr, align 8
  %5 = alloca ptr, align 8
  %6 = alloca ptr, align 8
  %7 = alloca i32, align 4
  store ptr %0, ptr %4, align 8
  store ptr %1, ptr %5, align 8
  store ptr %2, ptr %6, align 8
  %8 = load ptr, ptr @stderr, align 8
  %9 = call i32 (ptr, ptr, ...) @fprintf(ptr noundef %8, ptr noundef @.str.111) #4
  %10 = load ptr, ptr %4, align 8
  call void @zend_dump_op_array_name(ptr noundef %10)
  %11 = load ptr, ptr @stderr, align 8
  %12 = call i32 (ptr, ptr, ...) @fprintf(ptr noundef %11, ptr noundef @.str.104) #4
  store i32 0, ptr %7, align 4
  br label %13

13:                                               ; preds = %67, %3
  %14 = load i32, ptr %7, align 4
  %15 = load ptr, ptr %5, align 8
  %16 = getelementptr inbounds %struct._zend_cfg, ptr %15, i32 0, i32 0
  %17 = load i32, ptr %16, align 8
  %18 = icmp slt i32 %14, %17
  br i1 %18, label %19, label %70

19:                                               ; preds = %13
  %20 = load ptr, ptr @stderr, align 8
  %21 = load i32, ptr %7, align 4
  %22 = call i32 (ptr, ptr, ...) @fprintf(ptr noundef %20, ptr noundef @.str.112, i32 noundef %21) #4
  %23 = load ptr, ptr %4, align 8
  %24 = load ptr, ptr %6, align 8
  %25 = getelementptr inbounds %struct._zend_dfg, ptr %24, i32 0, i32 3
  %26 = load ptr, ptr %25, align 8
  %27 = load i32, ptr %7, align 4
  %28 = load ptr, ptr %6, align 8
  %29 = getelementptr inbounds %struct._zend_dfg, ptr %28, i32 0, i32 1
  %30 = load i32, ptr %29, align 4
  %31 = mul i32 %27, %30
  %32 = zext i32 %31 to i64
  %33 = getelementptr inbounds i64, ptr %26, i64 %32
  call void @zend_dump_var_set(ptr noundef %23, ptr noundef @.str.113, ptr noundef %33)
  %34 = load ptr, ptr %4, align 8
  %35 = load ptr, ptr %6, align 8
  %36 = getelementptr inbounds %struct._zend_dfg, ptr %35, i32 0, i32 4
  %37 = load ptr, ptr %36, align 8
  %38 = load i32, ptr %7, align 4
  %39 = load ptr, ptr %6, align 8
  %40 = getelementptr inbounds %struct._zend_dfg, ptr %39, i32 0, i32 1
  %41 = load i32, ptr %40, align 4
  %42 = mul i32 %38, %41
  %43 = zext i32 %42 to i64
  %44 = getelementptr inbounds i64, ptr %37, i64 %43
  call void @zend_dump_var_set(ptr noundef %34, ptr noundef @.str.114, ptr noundef %44)
  %45 = load ptr, ptr %4, align 8
  %46 = load ptr, ptr %6, align 8
  %47 = getelementptr inbounds %struct._zend_dfg, ptr %46, i32 0, i32 5
  %48 = load ptr, ptr %47, align 8
  %49 = load i32, ptr %7, align 4
  %50 = load ptr, ptr %6, align 8
  %51 = getelementptr inbounds %struct._zend_dfg, ptr %50, i32 0, i32 1
  %52 = load i32, ptr %51, align 4
  %53 = mul i32 %49, %52
  %54 = zext i32 %53 to i64
  %55 = getelementptr inbounds i64, ptr %48, i64 %54
  call void @zend_dump_var_set(ptr noundef %45, ptr noundef @.str.115, ptr noundef %55)
  %56 = load ptr, ptr %4, align 8
  %57 = load ptr, ptr %6, align 8
  %58 = getelementptr inbounds %struct._zend_dfg, ptr %57, i32 0, i32 6
  %59 = load ptr, ptr %58, align 8
  %60 = load i32, ptr %7, align 4
  %61 = load ptr, ptr %6, align 8
  %62 = getelementptr inbounds %struct._zend_dfg, ptr %61, i32 0, i32 1
  %63 = load i32, ptr %62, align 4
  %64 = mul i32 %60, %63
  %65 = zext i32 %64 to i64
  %66 = getelementptr inbounds i64, ptr %59, i64 %65
  call void @zend_dump_var_set(ptr noundef %56, ptr noundef @.str.116, ptr noundef %66)
  br label %67

67:                                               ; preds = %19
  %68 = load i32, ptr %7, align 4
  %69 = add nsw i32 %68, 1
  store i32 %69, ptr %7, align 4
  br label %13

70:                                               ; preds = %13
  ret void
}