; Function Attrs: nofree nounwind uwtable
define hidden void @zend_dump_dfg(ptr nocapture noundef readonly %0, ptr nocapture noundef readonly %1, ptr nocapture noundef readonly %2) local_unnamed_addr #3 {
  %4 = load ptr, ptr @stderr, align 8
  %5 = tail call i64 @fwrite(ptr nonnull @.str.111, i64 24, i64 1, ptr %4) #7
  %6 = getelementptr inbounds i8, ptr %0, i64 8
  %7 = load ptr, ptr %6, align 8
  %.not.i = icmp eq ptr %7, null
  br i1 %.not.i, label %22, label %8

8:                                                ; preds = %3
  %9 = getelementptr inbounds i8, ptr %0, i64 16
  %10 = load ptr, ptr %9, align 8
  %.not8.i = icmp eq ptr %10, null
  br i1 %.not8.i, label %19, label %11

11:                                               ; preds = %8
  %12 = getelementptr inbounds i8, ptr %10, i64 8
  %13 = load ptr, ptr %12, align 8
  %.not9.i = icmp eq ptr %13, null
  br i1 %.not9.i, label %19, label %14

14:                                               ; preds = %11
  %15 = load ptr, ptr @stderr, align 8
  %16 = getelementptr inbounds i8, ptr %13, i64 24
  %17 = getelementptr inbounds i8, ptr %7, i64 24
  %18 = tail call i32 (ptr, ptr, ...) @fprintf(ptr noundef %15, ptr noundef nonnull @.str.70, ptr noundef nonnull %16, ptr noundef nonnull %17) #8
  br label %zend_dump_op_array_name.exit

19:                                               ; preds = %11, %8
  %20 = load ptr, ptr @stderr, align 8
  %21 = getelementptr inbounds i8, ptr %7, i64 24
  %fputs.i = tail call i32 @fputs(ptr nonnull %21, ptr %20) #7
  br label %zend_dump_op_array_name.exit

22:                                               ; preds = %3
  %23 = load ptr, ptr @stderr, align 8
  %24 = tail call i64 @fwrite(ptr nonnull @.str.71, i64 6, i64 1, ptr %23) #7
  br label %zend_dump_op_array_name.exit

zend_dump_op_array_name.exit:                     ; preds = %14, %19, %22
  %25 = load ptr, ptr @stderr, align 8
  %26 = tail call i64 @fwrite(ptr nonnull @.str.104, i64 2, i64 1, ptr %25) #7
  %27 = load i32, ptr %1, align 8
  %28 = icmp sgt i32 %27, 0
  br i1 %28, label %.lr.ph, label %._crit_edge

.lr.ph:                                           ; preds = %zend_dump_op_array_name.exit
  %29 = getelementptr inbounds i8, ptr %2, i64 16
  %30 = getelementptr inbounds i8, ptr %2, i64 4
  %31 = getelementptr inbounds i8, ptr %2, i64 24
  %32 = getelementptr inbounds i8, ptr %2, i64 32
  %33 = getelementptr inbounds i8, ptr %2, i64 40
  br label %34

34:                                               ; preds = %.lr.ph, %34
  %.020 = phi i32 [ 0, %.lr.ph ], [ %57, %34 ]
  %35 = load ptr, ptr @stderr, align 8
  %36 = tail call i32 (ptr, ptr, ...) @fprintf(ptr noundef %35, ptr noundef nonnull @.str.112, i32 noundef %.020) #8
  %37 = load ptr, ptr %29, align 8
  %38 = load i32, ptr %30, align 4
  %39 = mul i32 %38, %.020
  %40 = zext i32 %39 to i64
  %41 = getelementptr inbounds i64, ptr %37, i64 %40
  tail call fastcc void @zend_dump_var_set(ptr noundef %0, ptr noundef nonnull @.str.113, ptr noundef %41)
  %42 = load ptr, ptr %31, align 8
  %43 = load i32, ptr %30, align 4
  %44 = mul i32 %43, %.020
  %45 = zext i32 %44 to i64
  %46 = getelementptr inbounds i64, ptr %42, i64 %45
  tail call fastcc void @zend_dump_var_set(ptr noundef %0, ptr noundef nonnull @.str.114, ptr noundef %46)
  %47 = load ptr, ptr %32, align 8
  %48 = load i32, ptr %30, align 4
  %49 = mul i32 %48, %.020
  %50 = zext i32 %49 to i64
  %51 = getelementptr inbounds i64, ptr %47, i64 %50
  tail call fastcc void @zend_dump_var_set(ptr noundef %0, ptr noundef nonnull @.str.115, ptr noundef %51)
  %52 = load ptr, ptr %33, align 8
  %53 = load i32, ptr %30, align 4
  %54 = mul i32 %53, %.020
  %55 = zext i32 %54 to i64
  %56 = getelementptr inbounds i64, ptr %52, i64 %55
  tail call fastcc void @zend_dump_var_set(ptr noundef %0, ptr noundef nonnull @.str.116, ptr noundef %56)
  %57 = add nuw nsw i32 %.020, 1
  %58 = load i32, ptr %1, align 8
  %59 = icmp slt i32 %57, %58
  br i1 %59, label %34, label %._crit_edge

._crit_edge:                                      ; preds = %34, %zend_dump_op_array_name.exit
  ret void
}